; Function Attrs: null_pointer_is_valid sspstrong uwtable
define i32 @dissect_per_bit_string_containing_pdu_new(ptr noundef %0, i32 noundef %1, ptr noundef captures(none) %2, ptr noundef %3, i32 noundef %4, i32 noundef %5, i32 noundef %6, i1 noundef zeroext %7, ptr noundef readonly captures(address_is_null) %8) local_unnamed_addr #0 {
  %10 = alloca ptr, align 8
  call void @llvm.lifetime.start.p0(i64 8, ptr nonnull %10) #13
  store ptr null, ptr %10, align 8
  %11 = call i32 @dissect_per_bit_string(ptr noundef %0, i32 noundef %1, ptr noundef %2, ptr noundef %3, i32 noundef %4, i32 noundef %5, i32 noundef %6, i1 noundef zeroext %7, ptr noundef null, i32 noundef 0, ptr noundef nonnull %10, ptr noundef null)
  %12 = icmp ne ptr %8, null
  %13 = load ptr, ptr %10, align 8
  %14 = icmp ne ptr %13, null
  %or.cond = select i1 %12, i1 %14, i1 false
  br i1 %or.cond, label %15, label %24

15:                                               ; preds = %9
  %16 = getelementptr inbounds nuw i8, ptr %2, i64 24
  %17 = load ptr, ptr %16, align 8
  %18 = load i32, ptr @ett_per_containing, align 4
  %19 = call ptr @proto_item_add_subtree(ptr noundef %17, i32 noundef %18)
  %20 = load ptr, ptr %10, align 8
  %21 = getelementptr inbounds nuw i8, ptr %2, i64 16
  %22 = load ptr, ptr %21, align 8
  %23 = call i32 %8(ptr noundef %20, ptr noundef %22, ptr noundef %19, ptr noundef null)
  br label %24

24:                                               ; preds = %15, %9
  call void @llvm.lifetime.end.p0(i64 8, ptr nonnull %10) #13
  ret i32 %11
}